target datalayout = "e-m:e-p270:32:32-p271:32:32-p272:64:64-i64:64-i128:128-f80:128-n8:16:32:64-S128"
target triple = "x86_64-pc-linux-gnu"

%struct.ossl_ex_data_global_st = type { ptr, [18 x %struct.ex_callbacks_st] }
%struct.ex_callbacks_st = type { ptr }

; Function Attrs: inlinehint nounwind uwtable
define internal void @sk_EX_CALLBACK_pop_free(ptr noundef %0, ptr noundef %1) #3 {
  %3 = alloca ptr, align 8
  %4 = alloca ptr, align 8
  store ptr %0, ptr %3, align 8, !tbaa !21
  store ptr %1, ptr %4, align 8, !tbaa !22
  %5 = load ptr, ptr %3, align 8, !tbaa !21
  %6 = load ptr, ptr %4, align 8, !tbaa !22
  call void @OPENSSL_sk_pop_free(ptr noundef %5, ptr noundef %6)
  ret void
}

; Function Attrs: nounwind uwtable
define void @ossl_crypto_cleanup_all_ex_data_int(ptr noundef %0) #0 {
  %2 = alloca ptr, align 8
  %3 = alloca i32, align 4
  %4 = alloca ptr, align 8
  %5 = alloca i32, align 4
  %6 = alloca ptr, align 8
  store ptr %0, ptr %2, align 8, !tbaa !3
  call void @llvm.lifetime.start.p0(i64 4, ptr %3) #4
  call void @llvm.lifetime.start.p0(i64 8, ptr %4) #4
  %7 = load ptr, ptr %2, align 8, !tbaa !3
  %8 = call ptr @ossl_lib_ctx_get_ex_data_global(ptr noundef %7)
  store ptr %8, ptr %4, align 8, !tbaa !8
  %9 = load ptr, ptr %4, align 8, !tbaa !8
  %10 = icmp eq ptr %9, null
  br i1 %10, label %11, label %12

11:                                               ; preds = %1
  store i32 1, ptr %5, align 4
  br label %36

12:                                               ; preds = %1
  store i32 0, ptr %3, align 4, !tbaa !12
  br label %13

13:                                               ; preds = %27, %12
  %14 = load i32, ptr %3, align 4, !tbaa !12
  %15 = icmp slt i32 %14, 18
  br i1 %15, label %16, label %30

16:                                               ; preds = %13
  call void @llvm.lifetime.start.p0(i64 8, ptr %6) #4
  %17 = load ptr, ptr %4, align 8, !tbaa !8
  %18 = getelementptr inbounds nuw %struct.ossl_ex_data_global_st, ptr %17, i32 0, i32 1
  %19 = load i32, ptr %3, align 4, !tbaa !12
  %20 = sext i32 %19 to i64
  %21 = getelementptr inbounds [18 x %struct.ex_callbacks_st], ptr %18, i64 0, i64 %20
  store ptr %21, ptr %6, align 8, !tbaa !14
  %22 = load ptr, ptr %6, align 8, !tbaa !14
  %23 = getelementptr inbounds nuw %struct.ex_callbacks_st, ptr %22, i32 0, i32 0
  %24 = load ptr, ptr %23, align 8, !tbaa !16
  call void @sk_EX_CALLBACK_pop_free(ptr noundef %24, ptr noundef @cleanup_cb)
  %25 = load ptr, ptr %6, align 8, !tbaa !14
  %26 = getelementptr inbounds nuw %struct.ex_callbacks_st, ptr %25, i32 0, i32 0
  store ptr null, ptr %26, align 8, !tbaa !16
  call void @llvm.lifetime.end.p0(i64 8, ptr %6) #4
  br label %27

27:                                               ; preds = %16
  %28 = load i32, ptr %3, align 4, !tbaa !12
  %29 = add nsw i32 %28, 1
  store i32 %29, ptr %3, align 4, !tbaa !12
  br label %13, !llvm.loop !19

30:                                               ; preds = %13
  %31 = load ptr, ptr %4, align 8, !tbaa !8
  %32 = getelementptr inbounds nuw %struct.ossl_ex_data_global_st, ptr %31, i32 0, i32 0
  %33 = load ptr, ptr %32, align 8, !tbaa !10
  call void @CRYPTO_THREAD_lock_free(ptr noundef %33)
  %34 = load ptr, ptr %4, align 8, !tbaa !8
  %35 = getelementptr inbounds nuw %struct.ossl_ex_data_global_st, ptr %34, i32 0, i32 0
  store ptr null, ptr %35, align 8, !tbaa !10
  store i32 0, ptr %5, align 4
  br label %36

36:                                               ; preds = %30, %11
  call void @llvm.lifetime.end.p0(i64 8, ptr %4) #4
  call void @llvm.lifetime.end.p0(i64 4, ptr %3) #4
  %37 = load i32, ptr %5, align 4
  switch i32 %37, label %39 [
    i32 0, label %38
    i32 1, label %38
  ]

38:                                               ; preds = %36, %36
  ret void

39:                                               ; preds = %36
  unreachable
}