; Function Attrs: nounwind uwtable
define void @ossl_crypto_cleanup_all_ex_data_int(ptr noundef %0) local_unnamed_addr #0 {
  %2 = tail call ptr @ossl_lib_ctx_get_ex_data_global(ptr noundef %0) #9
  %3 = icmp eq ptr %2, null
  br i1 %3, label %10, label %.preheader

.preheader:                                       ; preds = %1
  %4 = getelementptr inbounds nuw i8, ptr %2, i64 8
  br label %5

5:                                                ; preds = %.preheader, %5
  %indvars.iv = phi i64 [ 0, %.preheader ], [ %indvars.iv.next, %5 ]
  %6 = getelementptr inbounds nuw [18 x %struct.ex_callbacks_st], ptr %4, i64 0, i64 %indvars.iv
  %7 = load ptr, ptr %6, align 8, !tbaa !8
  tail call void @OPENSSL_sk_pop_free(ptr noundef %7, ptr noundef nonnull @cleanup_cb) #9
  store ptr null, ptr %6, align 8, !tbaa !8
  %indvars.iv.next = add nuw nsw i64 %indvars.iv, 1
  %exitcond.not = icmp eq i64 %indvars.iv.next, 18
  br i1 %exitcond.not, label %8, label %5, !llvm.loop !11

8:                                                ; preds = %5
  %9 = load ptr, ptr %2, align 8, !tbaa !3
  tail call void @CRYPTO_THREAD_lock_free(ptr noundef %9) #9
  store ptr null, ptr %2, align 8, !tbaa !3
  br label %10

10:                                               ; preds = %1, %8
  ret void
}